target datalayout = "e-m:e-p270:32:32-p271:32:32-p272:64:64-i64:64-i128:128-f80:128-n8:16:32:64-S128"
target triple = "x86_64-pc-linux-gnu"

%struct._generic_SUNAdaptController = type { ptr, ptr, ptr }
%struct._SUNAdaptControllerContent_ImExGus = type { double, double, double, double, double, double, double, i32 }

; Function Attrs: nounwind uwtable
define i32 @SUNAdaptController_EstimateStep_ImExGus(ptr noundef %0, double noundef %1, i32 noundef %2, double noundef %3, ptr noundef %4) #0 {
  %6 = alloca ptr, align 8
  %7 = alloca double, align 8
  %8 = alloca i32, align 4
  %9 = alloca double, align 8
  %10 = alloca ptr, align 8
  %11 = alloca ptr, align 8
  %12 = alloca i32, align 4
  %13 = alloca double, align 8
  %14 = alloca double, align 8
  %15 = alloca double, align 8
  %16 = alloca double, align 8
  %17 = alloca double, align 8
  %18 = alloca double, align 8
  %19 = alloca double, align 8
  %20 = alloca double, align 8
  %21 = alloca double, align 8
  store ptr %0, ptr %6, align 8, !tbaa !8
  store double %1, ptr %7, align 8, !tbaa !25
  store i32 %2, ptr %8, align 4, !tbaa !27
  store double %3, ptr %9, align 8, !tbaa !25
  store ptr %4, ptr %10, align 8, !tbaa !29
  call void @llvm.lifetime.start.p0(i64 8, ptr %11) #5
  %22 = load ptr, ptr %6, align 8, !tbaa !8
  %23 = getelementptr inbounds nuw %struct._generic_SUNAdaptController, ptr %22, i32 0, i32 2
  %24 = load ptr, ptr %23, align 8, !tbaa !31
  store ptr %24, ptr %11, align 8, !tbaa !3
  call void @llvm.lifetime.start.p0(i64 4, ptr %12) #5
  %25 = load i32, ptr %8, align 4, !tbaa !27
  %26 = add nsw i32 %25, 1
  store i32 %26, ptr %12, align 4, !tbaa !27
  call void @llvm.lifetime.start.p0(i64 8, ptr %13) #5
  %27 = load i32, ptr %12, align 4, !tbaa !27
  %28 = sitofp i32 %27 to double
  %29 = fdiv double -1.000000e+00, %28
  store double %29, ptr %13, align 8, !tbaa !25
  call void @llvm.lifetime.start.p0(i64 8, ptr %14) #5
  %30 = load ptr, ptr %6, align 8, !tbaa !8
  %31 = getelementptr inbounds nuw %struct._generic_SUNAdaptController, ptr %30, i32 0, i32 0
  %32 = load ptr, ptr %31, align 8, !tbaa !24
  %33 = getelementptr inbounds nuw %struct._SUNAdaptControllerContent_ImExGus, ptr %32, i32 0, i32 4
  %34 = load double, ptr %33, align 8, !tbaa !32
  %35 = load double, ptr %9, align 8, !tbaa !25
  %36 = fmul double %34, %35
  %37 = fcmp ogt double %36, 1.000000e-10
  br i1 %37, label %38, label %46

38:                                               ; preds = %5
  %39 = load ptr, ptr %6, align 8, !tbaa !8
  %40 = getelementptr inbounds nuw %struct._generic_SUNAdaptController, ptr %39, i32 0, i32 0
  %41 = load ptr, ptr %40, align 8, !tbaa !24
  %42 = getelementptr inbounds nuw %struct._SUNAdaptControllerContent_ImExGus, ptr %41, i32 0, i32 4
  %43 = load double, ptr %42, align 8, !tbaa !32
  %44 = load double, ptr %9, align 8, !tbaa !25
  %45 = fmul double %43, %44
  br label %47

46:                                               ; preds = %5
  br label %47

47:                                               ; preds = %46, %38
  %48 = phi double [ %45, %38 ], [ 1.000000e-10, %46 ]
  store double %48, ptr %14, align 8, !tbaa !25
  call void @llvm.lifetime.start.p0(i64 8, ptr %15) #5
  %49 = load ptr, ptr %6, align 8, !tbaa !8
  %50 = getelementptr inbounds nuw %struct._generic_SUNAdaptController, ptr %49, i32 0, i32 0
  %51 = load ptr, ptr %50, align 8, !tbaa !24
  %52 = getelementptr inbounds nuw %struct._SUNAdaptControllerContent_ImExGus, ptr %51, i32 0, i32 2
  %53 = load double, ptr %52, align 8, !tbaa !34
  %54 = fneg double %53
  %55 = load i32, ptr %12, align 4, !tbaa !27
  %56 = sitofp i32 %55 to double
  %57 = fdiv double %54, %56
  store double %57, ptr %15, align 8, !tbaa !25
  call void @llvm.lifetime.start.p0(i64 8, ptr %16) #5
  %58 = load ptr, ptr %6, align 8, !tbaa !8
  %59 = getelementptr inbounds nuw %struct._generic_SUNAdaptController, ptr %58, i32 0, i32 0
  %60 = load ptr, ptr %59, align 8, !tbaa !24
  %61 = getelementptr inbounds nuw %struct._SUNAdaptControllerContent_ImExGus, ptr %60, i32 0, i32 3
  %62 = load double, ptr %61, align 8, !tbaa !35
  %63 = fneg double %62
  %64 = load i32, ptr %12, align 4, !tbaa !27
  %65 = sitofp i32 %64 to double
  %66 = fdiv double %63, %65
  store double %66, ptr %16, align 8, !tbaa !25
  call void @llvm.lifetime.start.p0(i64 8, ptr %17) #5
  %67 = load ptr, ptr %6, align 8, !tbaa !8
  %68 = getelementptr inbounds nuw %struct._generic_SUNAdaptController, ptr %67, i32 0, i32 0
  %69 = load ptr, ptr %68, align 8, !tbaa !24
  %70 = getelementptr inbounds nuw %struct._SUNAdaptControllerContent_ImExGus, ptr %69, i32 0, i32 0
  %71 = load double, ptr %70, align 8, !tbaa !36
  %72 = fneg double %71
  %73 = load i32, ptr %12, align 4, !tbaa !27
  %74 = sitofp i32 %73 to double
  %75 = fdiv double %72, %74
  store double %75, ptr %17, align 8, !tbaa !25
  call void @llvm.lifetime.start.p0(i64 8, ptr %18) #5
  %76 = load ptr, ptr %6, align 8, !tbaa !8
  %77 = getelementptr inbounds nuw %struct._generic_SUNAdaptController, ptr %76, i32 0, i32 0
  %78 = load ptr, ptr %77, align 8, !tbaa !24
  %79 = getelementptr inbounds nuw %struct._SUNAdaptControllerContent_ImExGus, ptr %78, i32 0, i32 1
  %80 = load double, ptr %79, align 8, !tbaa !37
  %81 = fneg double %80
  %82 = load i32, ptr %12, align 4, !tbaa !27
  %83 = sitofp i32 %82 to double
  %84 = fdiv double %81, %83
  store double %84, ptr %18, align 8, !tbaa !25
  call void @llvm.lifetime.start.p0(i64 8, ptr %19) #5
  %85 = load ptr, ptr %6, align 8, !tbaa !8
  %86 = getelementptr inbounds nuw %struct._generic_SUNAdaptController, ptr %85, i32 0, i32 0
  %87 = load ptr, ptr %86, align 8, !tbaa !24
  %88 = getelementptr inbounds nuw %struct._SUNAdaptControllerContent_ImExGus, ptr %87, i32 0, i32 4
  %89 = load double, ptr %88, align 8, !tbaa !32
  %90 = load double, ptr %9, align 8, !tbaa !25
  %91 = fmul double %89, %90
  %92 = fcmp ogt double %91, 1.000000e-10
  br i1 %92, label %93, label %101

93:                                               ; preds = %47
  %94 = load ptr, ptr %6, align 8, !tbaa !8
  %95 = getelementptr inbounds nuw %struct._generic_SUNAdaptController, ptr %94, i32 0, i32 0
  %96 = load ptr, ptr %95, align 8, !tbaa !24
  %97 = getelementptr inbounds nuw %struct._SUNAdaptControllerContent_ImExGus, ptr %96, i32 0, i32 4
  %98 = load double, ptr %97, align 8, !tbaa !32
  %99 = load double, ptr %9, align 8, !tbaa !25
  %100 = fmul double %98, %99
  br label %102

101:                                              ; preds = %47
  br label %102

102:                                              ; preds = %101, %93
  %103 = phi double [ %100, %93 ], [ 1.000000e-10, %101 ]
  store double %103, ptr %19, align 8, !tbaa !25
  call void @llvm.lifetime.start.p0(i64 8, ptr %20) #5
  %104 = load double, ptr %19, align 8, !tbaa !25
  %105 = load ptr, ptr %6, align 8, !tbaa !8
  %106 = getelementptr inbounds nuw %struct._generic_SUNAdaptController, ptr %105, i32 0, i32 0
  %107 = load ptr, ptr %106, align 8, !tbaa !24
  %108 = getelementptr inbounds nuw %struct._SUNAdaptControllerContent_ImExGus, ptr %107, i32 0, i32 5
  %109 = load double, ptr %108, align 8, !tbaa !38
  %110 = fcmp ogt double %109, 1.000000e-10
  br i1 %110, label %111, label %117

111:                                              ; preds = %102
  %112 = load ptr, ptr %6, align 8, !tbaa !8
  %113 = getelementptr inbounds nuw %struct._generic_SUNAdaptController, ptr %112, i32 0, i32 0
  %114 = load ptr, ptr %113, align 8, !tbaa !24
  %115 = getelementptr inbounds nuw %struct._SUNAdaptControllerContent_ImExGus, ptr %114, i32 0, i32 5
  %116 = load double, ptr %115, align 8, !tbaa !38
  br label %118

117:                                              ; preds = %102
  br label %118

118:                                              ; preds = %117, %111
  %119 = phi double [ %116, %111 ], [ 1.000000e-10, %117 ]
  %120 = fdiv double %104, %119
  store double %120, ptr %20, align 8, !tbaa !25
  call void @llvm.lifetime.start.p0(i64 8, ptr %21) #5
  %121 = load double, ptr %7, align 8, !tbaa !25
  %122 = load ptr, ptr %6, align 8, !tbaa !8
  %123 = getelementptr inbounds nuw %struct._generic_SUNAdaptController, ptr %122, i32 0, i32 0
  %124 = load ptr, ptr %123, align 8, !tbaa !24
  %125 = getelementptr inbounds nuw %struct._SUNAdaptControllerContent_ImExGus, ptr %124, i32 0, i32 6
  %126 = load double, ptr %125, align 8, !tbaa !39
  %127 = fdiv double %121, %126
  store double %127, ptr %21, align 8, !tbaa !25
  %128 = load ptr, ptr %6, align 8, !tbaa !8
  %129 = getelementptr inbounds nuw %struct._generic_SUNAdaptController, ptr %128, i32 0, i32 0
  %130 = load ptr, ptr %129, align 8, !tbaa !24
  %131 = getelementptr inbounds nuw %struct._SUNAdaptControllerContent_ImExGus, ptr %130, i32 0, i32 7
  %132 = load i32, ptr %131, align 8, !tbaa !40
  %133 = icmp ne i32 %132, 0
  br i1 %133, label %134, label %141

134:                                              ; preds = %118
  %135 = load double, ptr %7, align 8, !tbaa !25
  %136 = load double, ptr %14, align 8, !tbaa !25
  %137 = load double, ptr %13, align 8, !tbaa !25
  %138 = call double @SUNRpowerR(double noundef %136, double noundef %137)
  %139 = fmul double %135, %138
  %140 = load ptr, ptr %10, align 8, !tbaa !29
  store double %139, ptr %140, align 8, !tbaa !25
  br label %182

141:                                              ; preds = %118
  %142 = load double, ptr %7, align 8, !tbaa !25
  %143 = load double, ptr %21, align 8, !tbaa !25
  %144 = load double, ptr %19, align 8, !tbaa !25
  %145 = load double, ptr %17, align 8, !tbaa !25
  %146 = call double @SUNRpowerR(double noundef %144, double noundef %145)
  %147 = fmul double %143, %146
  %148 = load double, ptr %20, align 8, !tbaa !25
  %149 = load double, ptr %18, align 8, !tbaa !25
  %150 = call double @SUNRpowerR(double noundef %148, double noundef %149)
  %151 = fmul double %147, %150
  %152 = load double, ptr %19, align 8, !tbaa !25
  %153 = load double, ptr %15, align 8, !tbaa !25
  %154 = call double @SUNRpowerR(double noundef %152, double noundef %153)
  %155 = load double, ptr %20, align 8, !tbaa !25
  %156 = load double, ptr %16, align 8, !tbaa !25
  %157 = call double @SUNRpowerR(double noundef %155, double noundef %156)
  %158 = fmul double %154, %157
  %159 = fcmp olt double %151, %158
  br i1 %159, label %160, label %170

160:                                              ; preds = %141
  %161 = load double, ptr %21, align 8, !tbaa !25
  %162 = load double, ptr %19, align 8, !tbaa !25
  %163 = load double, ptr %17, align 8, !tbaa !25
  %164 = call double @SUNRpowerR(double noundef %162, double noundef %163)
  %165 = fmul double %161, %164
  %166 = load double, ptr %20, align 8, !tbaa !25
  %167 = load double, ptr %18, align 8, !tbaa !25
  %168 = call double @SUNRpowerR(double noundef %166, double noundef %167)
  %169 = fmul double %165, %168
  br label %178

170:                                              ; preds = %141
  %171 = load double, ptr %19, align 8, !tbaa !25
  %172 = load double, ptr %15, align 8, !tbaa !25
  %173 = call double @SUNRpowerR(double noundef %171, double noundef %172)
  %174 = load double, ptr %20, align 8, !tbaa !25
  %175 = load double, ptr %16, align 8, !tbaa !25
  %176 = call double @SUNRpowerR(double noundef %174, double noundef %175)
  %177 = fmul double %173, %176
  br label %178

178:                                              ; preds = %170, %160
  %179 = phi double [ %169, %160 ], [ %177, %170 ]
  %180 = fmul double %142, %179
  %181 = load ptr, ptr %10, align 8, !tbaa !29
  store double %180, ptr %181, align 8, !tbaa !25
  br label %182

182:                                              ; preds = %178, %134
  call void @llvm.lifetime.end.p0(i64 8, ptr %21) #5
  call void @llvm.lifetime.end.p0(i64 8, ptr %20) #5
  call void @llvm.lifetime.end.p0(i64 8, ptr %19) #5
  call void @llvm.lifetime.end.p0(i64 8, ptr %18) #5
  call void @llvm.lifetime.end.p0(i64 8, ptr %17) #5
  call void @llvm.lifetime.end.p0(i64 8, ptr %16) #5
  call void @llvm.lifetime.end.p0(i64 8, ptr %15) #5
  call void @llvm.lifetime.end.p0(i64 8, ptr %14) #5
  call void @llvm.lifetime.end.p0(i64 8, ptr %13) #5
  call void @llvm.lifetime.end.p0(i64 4, ptr %12) #5
  call void @llvm.lifetime.end.p0(i64 8, ptr %11) #5
  ret i32 0
}