; Function Attrs: nounwind uwtable
define noundef i32 @SUNAdaptController_EstimateStep_ImExGus(ptr noundef readonly captures(none) %0, double noundef %1, i32 noundef %2, double noundef %3, ptr noundef writeonly captures(none) initializes((0, 8)) %4) #0 {
  %6 = add nsw i32 %2, 1
  %7 = sitofp i32 %6 to double
  %8 = load ptr, ptr %0, align 8, !tbaa !19
  %9 = getelementptr inbounds nuw i8, ptr %8, i64 32
  %10 = load double, ptr %9, align 8, !tbaa !27
  %11 = fmul double %3, %10
  %12 = fcmp ogt double %11, 1.000000e-10
  %13 = select i1 %12, double %11, double 1.000000e-10
  %14 = getelementptr inbounds nuw i8, ptr %8, i64 16
  %15 = load double, ptr %14, align 8, !tbaa !20
  %16 = fneg double %15
  %17 = fdiv double %16, %7
  %18 = getelementptr inbounds nuw i8, ptr %8, i64 24
  %19 = load double, ptr %18, align 8, !tbaa !24
  %20 = fneg double %19
  %21 = fdiv double %20, %7
  %22 = load double, ptr %8, align 8, !tbaa !25
  %23 = fneg double %22
  %24 = fdiv double %23, %7
  %25 = getelementptr inbounds nuw i8, ptr %8, i64 8
  %26 = load double, ptr %25, align 8, !tbaa !26
  %27 = fneg double %26
  %28 = fdiv double %27, %7
  %29 = getelementptr inbounds nuw i8, ptr %8, i64 40
  %30 = load double, ptr %29, align 8, !tbaa !28
  %31 = fcmp ogt double %30, 1.000000e-10
  %32 = select i1 %31, double %30, double 1.000000e-10
  %33 = fdiv double %13, %32
  %34 = getelementptr inbounds nuw i8, ptr %8, i64 48
  %35 = load double, ptr %34, align 8, !tbaa !30
  %36 = fdiv double %1, %35
  %37 = getelementptr inbounds nuw i8, ptr %8, i64 56
  %38 = load i32, ptr %37, align 8, !tbaa !29
  %.not = icmp eq i32 %38, 0
  br i1 %.not, label %42, label %39

39:                                               ; preds = %5
  %40 = fdiv double -1.000000e+00, %7
  %41 = tail call double @SUNRpowerR(double noundef %13, double noundef %40) #10
  br label %60

42:                                               ; preds = %5
  %43 = tail call double @SUNRpowerR(double noundef %13, double noundef %24) #10
  %44 = fmul double %36, %43
  %45 = tail call double @SUNRpowerR(double noundef %33, double noundef %28) #10
  %46 = fmul double %44, %45
  %47 = tail call double @SUNRpowerR(double noundef %13, double noundef %17) #10
  %48 = tail call double @SUNRpowerR(double noundef %33, double noundef %21) #10
  %49 = fmul double %47, %48
  %50 = fcmp olt double %46, %49
  br i1 %50, label %51, label %56

51:                                               ; preds = %42
  %52 = tail call double @SUNRpowerR(double noundef %13, double noundef %24) #10
  %53 = fmul double %36, %52
  %54 = tail call double @SUNRpowerR(double noundef %33, double noundef %28) #10
  %55 = fmul double %53, %54
  br label %60

56:                                               ; preds = %42
  %57 = tail call double @SUNRpowerR(double noundef %13, double noundef %17) #10
  %58 = tail call double @SUNRpowerR(double noundef %33, double noundef %21) #10
  %59 = fmul double %57, %58
  br label %60

60:                                               ; preds = %51, %56, %39
  %.pn = phi double [ %41, %39 ], [ %55, %51 ], [ %59, %56 ]
  %storemerge = fmul double %1, %.pn
  store double %storemerge, ptr %4, align 8, !tbaa !31
  ret i32 0
}